target datalayout = "e-m:e-p270:32:32-p271:32:32-p272:64:64-i64:64-i128:128-f80:128-n8:16:32:64-S128"
target triple = "x86_64-pc-linux-gnu"

%struct._lv_table_t = type { %struct._lv_obj_t, i32, i32, ptr, ptr, ptr, i32, i32 }
%struct._lv_obj_t = type { ptr, ptr, ptr, ptr, ptr, %struct.lv_area_t, i32, i16, i16 }
%struct.lv_area_t = type { i32, i32, i32, i32 }
%struct._lv_table_cell_t = type { i32, ptr, [1 x i8] }

; Function Attrs: inlinehint nounwind uwtable
define internal zeroext i1 @is_cell_empty(ptr noundef %0) #4 {
  %2 = alloca ptr, align 8
  store ptr %0, ptr %2, align 8, !tbaa !37
  %3 = load ptr, ptr %2, align 8, !tbaa !37
  %4 = icmp eq ptr %3, null
  ret i1 %4
}

; Function Attrs: nounwind uwtable
define zeroext i1 @lv_table_has_cell_ctrl(ptr noundef %0, i32 noundef %1, i32 noundef %2, i32 noundef %3) #0 {
  %5 = alloca i1, align 1
  %6 = alloca ptr, align 8
  %7 = alloca i32, align 4
  %8 = alloca i32, align 4
  %9 = alloca i32, align 4
  %10 = alloca ptr, align 8
  %11 = alloca i32, align 4
  %12 = alloca i32, align 4
  store ptr %0, ptr %6, align 8, !tbaa !8
  store i32 %1, ptr %7, align 4, !tbaa !25
  store i32 %2, ptr %8, align 4, !tbaa !25
  store i32 %3, ptr %9, align 4, !tbaa !25
  br label %13

13:                                               ; preds = %4
  %14 = load ptr, ptr %6, align 8, !tbaa !8
  %15 = icmp ne ptr %14, null
  br i1 %15, label %20, label %16

16:                                               ; preds = %13
  br label %17

17:                                               ; preds = %16
  br label %18

18:                                               ; preds = %17
  br label %19

19:                                               ; preds = %18, %19
  br label %19

20:                                               ; preds = %13
  br label %21

21:                                               ; preds = %20
  call void @llvm.lifetime.start.p0(i64 8, ptr %10) #6
  %22 = load ptr, ptr %6, align 8, !tbaa !8
  store ptr %22, ptr %10, align 8, !tbaa !10
  %23 = load i32, ptr %7, align 4, !tbaa !25
  %24 = load ptr, ptr %10, align 8, !tbaa !10
  %25 = getelementptr inbounds nuw %struct._lv_table_t, ptr %24, i32 0, i32 2
  %26 = load i32, ptr %25, align 4, !tbaa !22
  %27 = icmp uge i32 %23, %26
  br i1 %27, label %34, label %28

28:                                               ; preds = %21
  %29 = load i32, ptr %8, align 4, !tbaa !25
  %30 = load ptr, ptr %10, align 8, !tbaa !10
  %31 = getelementptr inbounds nuw %struct._lv_table_t, ptr %30, i32 0, i32 1
  %32 = load i32, ptr %31, align 8, !tbaa !12
  %33 = icmp uge i32 %29, %32
  br i1 %33, label %34, label %38

34:                                               ; preds = %28, %21
  br label %35

35:                                               ; preds = %34
  br label %36

36:                                               ; preds = %35
  br label %37

37:                                               ; preds = %36
  store i1 false, ptr %5, align 1
  store i32 1, ptr %11, align 4
  br label %70

38:                                               ; preds = %28
  call void @llvm.lifetime.start.p0(i64 4, ptr %12) #6
  %39 = load i32, ptr %7, align 4, !tbaa !25
  %40 = load ptr, ptr %10, align 8, !tbaa !10
  %41 = getelementptr inbounds nuw %struct._lv_table_t, ptr %40, i32 0, i32 1
  %42 = load i32, ptr %41, align 8, !tbaa !12
  %43 = mul i32 %39, %42
  %44 = load i32, ptr %8, align 4, !tbaa !25
  %45 = add i32 %43, %44
  store i32 %45, ptr %12, align 4, !tbaa !25
  %46 = load ptr, ptr %10, align 8, !tbaa !10
  %47 = getelementptr inbounds nuw %struct._lv_table_t, ptr %46, i32 0, i32 3
  %48 = load ptr, ptr %47, align 8, !tbaa !26
  %49 = load i32, ptr %12, align 4, !tbaa !25
  %50 = zext i32 %49 to i64
  %51 = getelementptr inbounds nuw ptr, ptr %48, i64 %50
  %52 = load ptr, ptr %51, align 8, !tbaa !27
  %53 = call zeroext i1 @is_cell_empty(ptr noundef %52)
  br i1 %53, label %54, label %55

54:                                               ; preds = %38
  store i1 false, ptr %5, align 1
  store i32 1, ptr %11, align 4
  br label %69

55:                                               ; preds = %38
  %56 = load ptr, ptr %10, align 8, !tbaa !10
  %57 = getelementptr inbounds nuw %struct._lv_table_t, ptr %56, i32 0, i32 3
  %58 = load ptr, ptr %57, align 8, !tbaa !26
  %59 = load i32, ptr %12, align 4, !tbaa !25
  %60 = zext i32 %59 to i64
  %61 = getelementptr inbounds nuw ptr, ptr %58, i64 %60
  %62 = load ptr, ptr %61, align 8, !tbaa !27
  %63 = getelementptr inbounds nuw %struct._lv_table_cell_t, ptr %62, i32 0, i32 0
  %64 = load i32, ptr %63, align 8, !tbaa !47
  %65 = load i32, ptr %9, align 4, !tbaa !25
  %66 = and i32 %64, %65
  %67 = load i32, ptr %9, align 4, !tbaa !25
  %68 = icmp eq i32 %66, %67
  store i1 %68, ptr %5, align 1
  store i32 1, ptr %11, align 4
  br label %69

69:                                               ; preds = %55, %54
  call void @llvm.lifetime.end.p0(i64 4, ptr %12) #6
  br label %70

70:                                               ; preds = %69, %37
  call void @llvm.lifetime.end.p0(i64 8, ptr %10) #6
  %71 = load i1, ptr %5, align 1
  ret i1 %71
}