; Function Attrs: nofree norecurse nosync nounwind memory(read, inaccessiblemem: none) uwtable
define zeroext i1 @lv_table_has_cell_ctrl(ptr noundef readonly captures(address_is_null) %0, i32 noundef %1, i32 noundef %2, i32 noundef %3) local_unnamed_addr #4 {
  %.not = icmp eq ptr %0, null
  br i1 %.not, label %.preheader, label %5

.preheader:                                       ; preds = %4, %.preheader
  br label %.preheader

5:                                                ; preds = %4
  %6 = getelementptr inbounds nuw i8, ptr %0, i64 68
  %7 = load i32, ptr %6, align 4, !tbaa !18
  %.not19 = icmp ult i32 %1, %7
  br i1 %.not19, label %8, label %24

8:                                                ; preds = %5
  %9 = getelementptr inbounds nuw i8, ptr %0, i64 64
  %10 = load i32, ptr %9, align 8, !tbaa !3
  %.not20 = icmp ult i32 %2, %10
  br i1 %.not20, label %11, label %24

11:                                               ; preds = %8
  %12 = mul i32 %10, %1
  %13 = add i32 %12, %2
  %14 = getelementptr inbounds nuw i8, ptr %0, i64 72
  %15 = load ptr, ptr %14, align 8, !tbaa !22
  %16 = zext i32 %13 to i64
  %17 = getelementptr inbounds nuw ptr, ptr %15, i64 %16
  %18 = load ptr, ptr %17, align 8, !tbaa !23
  %19 = icmp eq ptr %18, null
  br i1 %19, label %24, label %20

20:                                               ; preds = %11
  %21 = load i32, ptr %18, align 8, !tbaa !41
  %22 = and i32 %21, %3
  %23 = icmp eq i32 %22, %3
  br label %24

24:                                               ; preds = %20, %11, %8, %5
  %.0 = phi i1 [ false, %5 ], [ false, %8 ], [ %23, %20 ], [ false, %11 ]
  ret i1 %.0
}